; Function Attrs: mustprogress uwtable
define void @_ZN3zmq17socks_connecter_t21set_auth_method_basicERKNSt7__cxx1112basic_stringIcSt11char_traitsIcESaIcEEES8_(ptr noundef nonnull align 8 dereferenceable(3032) %this, ptr noundef nonnull align 8 dereferenceable(32) %username_, ptr noundef nonnull align 8 dereferenceable(32) %password_) local_unnamed_addr #0 align 2 {
entry:
  %_auth_method = getelementptr inbounds i8, ptr %this, i64 2952
  store i32 2, ptr %_auth_method, align 8
  %_auth_username = getelementptr inbounds i8, ptr %this, i64 2960
  %call = tail call noundef nonnull align 8 dereferenceable(32) ptr @_ZNSt7__cxx1112basic_stringIcSt11char_traitsIcESaIcEEaSERKS4_(ptr noundef nonnull align 8 dereferenceable(32) %_auth_username, ptr noundef nonnull align 8 dereferenceable(32) %username_)
  %_auth_password = getelementptr inbounds i8, ptr %this, i64 2992
  %call2 = tail call noundef nonnull align 8 dereferenceable(32) ptr @_ZNSt7__cxx1112basic_stringIcSt11char_traitsIcESaIcEEaSERKS4_(ptr noundef nonnull align 8 dereferenceable(32) %_auth_password, ptr noundef nonnull align 8 dereferenceable(32) %password_)
  ret void
}